; Function Attrs: mustprogress uwtable
define hidden void @_ZN2cv11bioinspired17MagnoRetinaFilter23_amacrineCellsComputingEPKfS3_(ptr noundef nonnull readonly align 8 captures(none) dereferenceable(324) %0, ptr noundef %1, ptr noundef %2) local_unnamed_addr #3 align 2 personality ptr @__gxx_personality_v0 {
  %4 = alloca %"class.cv::Range", align 4
  %5 = alloca %"class.cv::bioinspired::MagnoRetinaFilter::Parallel_amacrineCellsComputing", align 8
  call void @llvm.lifetime.start.p0(i64 8, ptr nonnull %4) #14
  %6 = getelementptr inbounds nuw i8, ptr %0, i64 56
  %7 = load i64, ptr %6, align 8, !tbaa !55
  %8 = trunc i64 %7 to i32
  store i32 0, ptr %4, align 4, !tbaa !56
  %9 = getelementptr inbounds nuw i8, ptr %4, i64 4
  store i32 %8, ptr %9, align 4, !tbaa !58
  call void @llvm.lifetime.start.p0(i64 64, ptr nonnull %5) #14
  %10 = getelementptr inbounds nuw i8, ptr %0, i64 184
  %11 = load ptr, ptr %10, align 8, !tbaa !12
  %12 = getelementptr inbounds nuw i8, ptr %0, i64 200
  %13 = load ptr, ptr %12, align 8, !tbaa !12
  %14 = getelementptr inbounds nuw i8, ptr %0, i64 216
  %15 = load ptr, ptr %14, align 8, !tbaa !12
  %16 = getelementptr inbounds nuw i8, ptr %0, i64 232
  %17 = load ptr, ptr %16, align 8, !tbaa !12
  %18 = getelementptr inbounds nuw i8, ptr %0, i64 320
  %19 = load float, ptr %18, align 8, !tbaa !54
  store ptr getelementptr inbounds nuw inrange(-16, 24) (i8, ptr @_ZTVN2cv11bioinspired17MagnoRetinaFilter31Parallel_amacrineCellsComputingE, i64 16), ptr %5, align 8, !tbaa !3
  %20 = getelementptr inbounds nuw i8, ptr %5, i64 8
  store ptr %1, ptr %20, align 8, !tbaa !59
  %21 = getelementptr inbounds nuw i8, ptr %5, i64 16
  store ptr %2, ptr %21, align 8, !tbaa !62
  %22 = getelementptr inbounds nuw i8, ptr %5, i64 24
  store ptr %11, ptr %22, align 8, !tbaa !63
  %23 = getelementptr inbounds nuw i8, ptr %5, i64 32
  store ptr %13, ptr %23, align 8, !tbaa !64
  %24 = getelementptr inbounds nuw i8, ptr %5, i64 40
  store ptr %15, ptr %24, align 8, !tbaa !65
  %25 = getelementptr inbounds nuw i8, ptr %5, i64 48
  store ptr %17, ptr %25, align 8, !tbaa !66
  %26 = getelementptr inbounds nuw i8, ptr %5, i64 56
  store float %19, ptr %26, align 8, !tbaa !67
  invoke void @_ZN2cv13parallel_for_ERKNS_5RangeERKNS_16ParallelLoopBodyEd(ptr noundef nonnull align 4 dereferenceable(8) %4, ptr noundef nonnull align 8 dereferenceable(8) %5, double noundef -1.000000e+00)
          to label %27 unwind label %28

27:                                               ; preds = %3
  call void @_ZN2cv16ParallelLoopBodyD2Ev(ptr noundef nonnull align 8 dereferenceable(60) %5) #14
  call void @llvm.lifetime.end.p0(i64 64, ptr nonnull %5) #14
  call void @llvm.lifetime.end.p0(i64 8, ptr nonnull %4) #14
  ret void

28:                                               ; preds = %3
  %29 = landingpad { ptr, i32 }
          cleanup
  call void @_ZN2cv16ParallelLoopBodyD2Ev(ptr noundef nonnull align 8 dereferenceable(60) %5) #14
  call void @llvm.lifetime.end.p0(i64 64, ptr nonnull %5) #14
  call void @llvm.lifetime.end.p0(i64 8, ptr nonnull %4) #14
  resume { ptr, i32 } %29
}